#include <math.h>
#include <stdio.h>
#include <stdlib.h>
#include <string.h>

int main()
{
	int p[26]={0},q[26]={0},a=0,b,c,d,e,f,g,i,j,k,l,m,n;
	scanf("%d",&k);
	for(i=0;i<k;i++)
	{scanf("%d",&p[i]);}
	q[k-1]=1;
	for(i=k-2;i>=0;i--)
	{
		b=1;	
		for(j=i+1;j<k;j++)
		{
			if(p[i]>=p[j]) { if(q[j]+1>b) b=q[j]+1; }
		}
		q[i]=b;
	}
	for(i=0;i<k;i++)
	{if(a<q[i]) a=q[i];}
	printf("%d\n",a);
return 0;
}