; ModuleID = '10/962.c'
source_filename = "10/962.c"
target datalayout = "e-m:e-p270:32:32-p271:32:32-p272:64:64-i64:64-f80:128-n8:16:32:64-S128"
target triple = "x86_64-pc-linux-gnu"

@.str = private unnamed_addr constant [3 x i8] c"%d\00", align 1
@.str.1 = private unnamed_addr constant [4 x i8] c"%d\0A\00", align 1

; Function Attrs: noinline nounwind uwtable
define dso_local i32 @main() #0 {
  %1 = alloca i32, align 4
  %2 = alloca [26 x i32], align 16
  %3 = alloca [26 x i32], align 16
  %4 = alloca i32, align 4
  %5 = alloca i32, align 4
  %6 = alloca i32, align 4
  %7 = alloca i32, align 4
  %8 = alloca i32, align 4
  %9 = alloca i32, align 4
  %10 = alloca i32, align 4
  %11 = alloca i32, align 4
  %12 = alloca i32, align 4
  %13 = alloca i32, align 4
  %14 = alloca i32, align 4
  %15 = alloca i32, align 4
  %16 = alloca i32, align 4
  store i32 0, i32* %1, align 4
  %17 = bitcast [26 x i32]* %2 to i8*
  call void @llvm.memset.p0i8.i64(i8* align 16 %17, i8 0, i64 104, i1 false)
  %18 = bitcast [26 x i32]* %3 to i8*
  call void @llvm.memset.p0i8.i64(i8* align 16 %18, i8 0, i64 104, i1 false)
  store i32 0, i32* %4, align 4
  %19 = call i32 (i8*, ...) @__isoc99_scanf(i8* getelementptr inbounds ([3 x i8], [3 x i8]* @.str, i64 0, i64 0), i32* %13)
  store i32 0, i32* %11, align 4
  br label %20

20:                                               ; preds = %29, %0
  %21 = load i32, i32* %11, align 4
  %22 = load i32, i32* %13, align 4
  %23 = icmp slt i32 %21, %22
  br i1 %23, label %24, label %32

24:                                               ; preds = %20
  %25 = load i32, i32* %11, align 4
  %26 = sext i32 %25 to i64
  %27 = getelementptr inbounds [26 x i32], [26 x i32]* %2, i64 0, i64 %26
  %28 = call i32 (i8*, ...) @__isoc99_scanf(i8* getelementptr inbounds ([3 x i8], [3 x i8]* @.str, i64 0, i64 0), i32* %27)
  br label %29

29:                                               ; preds = %24
  %30 = load i32, i32* %11, align 4
  %31 = add nsw i32 %30, 1
  store i32 %31, i32* %11, align 4
  br label %20

32:                                               ; preds = %20
  %33 = load i32, i32* %13, align 4
  %34 = sub nsw i32 %33, 1
  %35 = sext i32 %34 to i64
  %36 = getelementptr inbounds [26 x i32], [26 x i32]* %3, i64 0, i64 %35
  store i32 1, i32* %36, align 4
  %37 = load i32, i32* %13, align 4
  %38 = sub nsw i32 %37, 2
  store i32 %38, i32* %11, align 4
  br label %39

39:                                               ; preds = %83, %32
  %40 = load i32, i32* %11, align 4
  %41 = icmp sge i32 %40, 0
  br i1 %41, label %42, label %86

42:                                               ; preds = %39
  store i32 1, i32* %5, align 4
  %43 = load i32, i32* %11, align 4
  %44 = add nsw i32 %43, 1
  store i32 %44, i32* %12, align 4
  br label %45

45:                                               ; preds = %75, %42
  %46 = load i32, i32* %12, align 4
  %47 = load i32, i32* %13, align 4
  %48 = icmp slt i32 %46, %47
  br i1 %48, label %49, label %78

49:                                               ; preds = %45
  %50 = load i32, i32* %11, align 4
  %51 = sext i32 %50 to i64
  %52 = getelementptr inbounds [26 x i32], [26 x i32]* %2, i64 0, i64 %51
  %53 = load i32, i32* %52, align 4
  %54 = load i32, i32* %12, align 4
  %55 = sext i32 %54 to i64
  %56 = getelementptr inbounds [26 x i32], [26 x i32]* %2, i64 0, i64 %55
  %57 = load i32, i32* %56, align 4
  %58 = icmp sge i32 %53, %57
  br i1 %58, label %59, label %74

59:                                               ; preds = %49
  %60 = load i32, i32* %12, align 4
  %61 = sext i32 %60 to i64
  %62 = getelementptr inbounds [26 x i32], [26 x i32]* %3, i64 0, i64 %61
  %63 = load i32, i32* %62, align 4
  %64 = add nsw i32 %63, 1
  %65 = load i32, i32* %5, align 4
  %66 = icmp sgt i32 %64, %65
  br i1 %66, label %67, label %73

67:                                               ; preds = %59
  %68 = load i32, i32* %12, align 4
  %69 = sext i32 %68 to i64
  %70 = getelementptr inbounds [26 x i32], [26 x i32]* %3, i64 0, i64 %69
  %71 = load i32, i32* %70, align 4
  %72 = add nsw i32 %71, 1
  store i32 %72, i32* %5, align 4
  br label %73

73:                                               ; preds = %67, %59
  br label %74

74:                                               ; preds = %73, %49
  br label %75

75:                                               ; preds = %74
  %76 = load i32, i32* %12, align 4
  %77 = add nsw i32 %76, 1
  store i32 %77, i32* %12, align 4
  br label %45

78:                                               ; preds = %45
  %79 = load i32, i32* %5, align 4
  %80 = load i32, i32* %11, align 4
  %81 = sext i32 %80 to i64
  %82 = getelementptr inbounds [26 x i32], [26 x i32]* %3, i64 0, i64 %81
  store i32 %79, i32* %82, align 4
  br label %83

83:                                               ; preds = %78
  %84 = load i32, i32* %11, align 4
  %85 = add nsw i32 %84, -1
  store i32 %85, i32* %11, align 4
  br label %39

86:                                               ; preds = %39
  store i32 0, i32* %11, align 4
  br label %87

87:                                               ; preds = %104, %86
  %88 = load i32, i32* %11, align 4
  %89 = load i32, i32* %13, align 4
  %90 = icmp slt i32 %88, %89
  br i1 %90, label %91, label %107

91:                                               ; preds = %87
  %92 = load i32, i32* %4, align 4
  %93 = load i32, i32* %11, align 4
  %94 = sext i32 %93 to i64
  %95 = getelementptr inbounds [26 x i32], [26 x i32]* %3, i64 0, i64 %94
  %96 = load i32, i32* %95, align 4
  %97 = icmp slt i32 %92, %96
  br i1 %97, label %98, label %103

98:                                               ; preds = %91
  %99 = load i32, i32* %11, align 4
  %100 = sext i32 %99 to i64
  %101 = getelementptr inbounds [26 x i32], [26 x i32]* %3, i64 0, i64 %100
  %102 = load i32, i32* %101, align 4
  store i32 %102, i32* %4, align 4
  br label %103

103:                                              ; preds = %98, %91
  br label %104

104:                                              ; preds = %103
  %105 = load i32, i32* %11, align 4
  %106 = add nsw i32 %105, 1
  store i32 %106, i32* %11, align 4
  br label %87

107:                                              ; preds = %87
  %108 = load i32, i32* %4, align 4
  %109 = call i32 (i8*, ...) @printf(i8* getelementptr inbounds ([4 x i8], [4 x i8]* @.str.1, i64 0, i64 0), i32 %108)
  ret i32 0
}

; Function Attrs: argmemonly nounwind willreturn
declare void @llvm.memset.p0i8.i64(i8* nocapture writeonly, i8, i64, i1 immarg) #1

declare dso_local i32 @__isoc99_scanf(i8*, ...) #2

declare dso_local i32 @printf(i8*, ...) #2


!llvm.module.flags = !{!0}
!llvm.ident = !{!1}

!0 = !{i32 1, !"wchar_size", i32 4}
!1 = !{!"clang version 10.0.0-4ubuntu1 "}
